target datalayout = "e-m:e-p270:32:32-p271:32:32-p272:64:64-i64:64-i128:128-f80:128-n8:16:32:64-S128"
target triple = "x86_64-pc-linux-gnu"

%struct.pointf_s = type { double, double }

; Function Attrs: nounwind uwtable
define void @rect2poly(ptr noundef %0) #0 {
  %2 = alloca ptr, align 8
  store ptr %0, ptr %2, align 8, !tbaa !19
  %3 = load ptr, ptr %2, align 8, !tbaa !19
  %4 = getelementptr inbounds %struct.pointf_s, ptr %3, i64 1
  %5 = getelementptr inbounds nuw %struct.pointf_s, ptr %4, i32 0, i32 0
  %6 = load double, ptr %5, align 8, !tbaa !9
  %7 = load ptr, ptr %2, align 8, !tbaa !19
  %8 = getelementptr inbounds %struct.pointf_s, ptr %7, i64 2
  %9 = getelementptr inbounds nuw %struct.pointf_s, ptr %8, i32 0, i32 0
  store double %6, ptr %9, align 8, !tbaa !9
  %10 = load ptr, ptr %2, align 8, !tbaa !19
  %11 = getelementptr inbounds %struct.pointf_s, ptr %10, i64 3
  %12 = getelementptr inbounds nuw %struct.pointf_s, ptr %11, i32 0, i32 0
  store double %6, ptr %12, align 8, !tbaa !9
  %13 = load ptr, ptr %2, align 8, !tbaa !19
  %14 = getelementptr inbounds %struct.pointf_s, ptr %13, i64 1
  %15 = getelementptr inbounds nuw %struct.pointf_s, ptr %14, i32 0, i32 1
  %16 = load double, ptr %15, align 8, !tbaa !12
  %17 = load ptr, ptr %2, align 8, !tbaa !19
  %18 = getelementptr inbounds %struct.pointf_s, ptr %17, i64 2
  %19 = getelementptr inbounds nuw %struct.pointf_s, ptr %18, i32 0, i32 1
  store double %16, ptr %19, align 8, !tbaa !12
  %20 = load ptr, ptr %2, align 8, !tbaa !19
  %21 = getelementptr inbounds %struct.pointf_s, ptr %20, i64 0
  %22 = getelementptr inbounds nuw %struct.pointf_s, ptr %21, i32 0, i32 1
  %23 = load double, ptr %22, align 8, !tbaa !12
  %24 = load ptr, ptr %2, align 8, !tbaa !19
  %25 = getelementptr inbounds %struct.pointf_s, ptr %24, i64 3
  %26 = getelementptr inbounds nuw %struct.pointf_s, ptr %25, i32 0, i32 1
  store double %23, ptr %26, align 8, !tbaa !12
  %27 = load ptr, ptr %2, align 8, !tbaa !19
  %28 = getelementptr inbounds %struct.pointf_s, ptr %27, i64 0
  %29 = getelementptr inbounds nuw %struct.pointf_s, ptr %28, i32 0, i32 0
  %30 = load double, ptr %29, align 8, !tbaa !9
  %31 = load ptr, ptr %2, align 8, !tbaa !19
  %32 = getelementptr inbounds %struct.pointf_s, ptr %31, i64 1
  %33 = getelementptr inbounds nuw %struct.pointf_s, ptr %32, i32 0, i32 0
  store double %30, ptr %33, align 8, !tbaa !9
  ret void
}